target datalayout = "e-m:e-p270:32:32-p271:32:32-p272:64:64-i64:64-i128:128-f80:128-n8:16:32:64-S128"
target triple = "x86_64-pc-linux-gnu"

@.str.4 = private unnamed_addr constant [5 x i8] c"TCON\00", align 1
@.str.92 = private unnamed_addr constant [33 x i8] c"Error reading frame %s, skipped\0A\00", align 1
@.str.93 = private unnamed_addr constant [4 x i8] c"TCO\00", align 1
@.str.94 = private unnamed_addr constant [5 x i8] c"(%d)\00", align 1
@.str.95 = private unnamed_addr constant [3 x i8] c"%d\00", align 1
@ff_id3v1_genre_str = external constant [192 x ptr], align 16
@.str.96 = private unnamed_addr constant [5 x i8] c"TXXX\00", align 1
@.str.97 = private unnamed_addr constant [4 x i8] c"TXX\00", align 1

; Function Attrs: nounwind uwtable
define internal void @read_ttag(ptr noundef %0, ptr noundef %1, i32 noundef %2, ptr noundef %3, ptr noundef %4) #0 {
  %6 = alloca ptr, align 8
  %7 = alloca ptr, align 8
  %8 = alloca i32, align 4
  %9 = alloca ptr, align 8
  %10 = alloca ptr, align 8
  %11 = alloca ptr, align 8
  %12 = alloca i32, align 4
  %13 = alloca i32, align 4
  %14 = alloca i32, align 4
  %15 = alloca i32, align 4
  store ptr %0, ptr %6, align 8, !tbaa !19
  store ptr %1, ptr %7, align 8, !tbaa !12
  store i32 %2, ptr %8, align 4, !tbaa !10
  store ptr %3, ptr %9, align 8, !tbaa !14
  store ptr %4, ptr %10, align 8, !tbaa !4
  call void @llvm.lifetime.start.p0(i64 8, ptr %11) #10
  call void @llvm.lifetime.start.p0(i64 4, ptr %12) #10
  call void @llvm.lifetime.start.p0(i64 4, ptr %13) #10
  store i32 24, ptr %13, align 4, !tbaa !10
  call void @llvm.lifetime.start.p0(i64 4, ptr %14) #10
  %16 = load i32, ptr %8, align 4, !tbaa !10
  %17 = icmp slt i32 %16, 1
  br i1 %17, label %18, label %19

18:                                               ; preds = %5
  store i32 1, ptr %15, align 4
  br label %95

19:                                               ; preds = %5
  %20 = load ptr, ptr %7, align 8, !tbaa !12
  %21 = call i32 @avio_r8(ptr noundef %20)
  store i32 %21, ptr %12, align 4, !tbaa !10
  %22 = load i32, ptr %8, align 4, !tbaa !10
  %23 = add nsw i32 %22, -1
  store i32 %23, ptr %8, align 4, !tbaa !10
  %24 = load ptr, ptr %6, align 8, !tbaa !19
  %25 = load ptr, ptr %7, align 8, !tbaa !12
  %26 = load i32, ptr %12, align 4, !tbaa !10
  %27 = call i32 @decode_str(ptr noundef %24, ptr noundef %25, i32 noundef %26, ptr noundef %11, ptr noundef %8)
  %28 = icmp slt i32 %27, 0
  br i1 %28, label %29, label %32

29:                                               ; preds = %19
  %30 = load ptr, ptr %6, align 8, !tbaa !19
  %31 = load ptr, ptr %10, align 8, !tbaa !4
  call void (ptr, i32, ptr, ...) @av_log(ptr noundef %30, i32 noundef 16, ptr noundef @.str.92, ptr noundef %31)
  store i32 1, ptr %15, align 4
  br label %95

32:                                               ; preds = %19
  %33 = load ptr, ptr %10, align 8, !tbaa !4
  %34 = call i32 @strcmp(ptr noundef %33, ptr noundef @.str.4) #11
  %35 = icmp ne i32 %34, 0
  br i1 %35, label %36, label %40

36:                                               ; preds = %32
  %37 = load ptr, ptr %10, align 8, !tbaa !4
  %38 = call i32 @strcmp(ptr noundef %37, ptr noundef @.str.93) #11
  %39 = icmp ne i32 %38, 0
  br i1 %39, label %57, label %40

40:                                               ; preds = %36, %32
  %41 = load ptr, ptr %11, align 8, !tbaa !4
  %42 = call i32 (ptr, ptr, ...) @__isoc99_sscanf(ptr noundef %41, ptr noundef @.str.94, ptr noundef %14) #10
  %43 = icmp eq i32 %42, 1
  br i1 %43, label %48, label %44

44:                                               ; preds = %40
  %45 = load ptr, ptr %11, align 8, !tbaa !4
  %46 = call i32 (ptr, ptr, ...) @__isoc99_sscanf(ptr noundef %45, ptr noundef @.str.95, ptr noundef %14) #10
  %47 = icmp eq i32 %46, 1
  br i1 %47, label %48, label %57

48:                                               ; preds = %44, %40
  %49 = load i32, ptr %14, align 4, !tbaa !10
  %50 = icmp ule i32 %49, 191
  br i1 %50, label %51, label %57

51:                                               ; preds = %48
  call void @av_freep(ptr noundef %11)
  %52 = load i32, ptr %14, align 4, !tbaa !10
  %53 = zext i32 %52 to i64
  %54 = getelementptr inbounds nuw [192 x ptr], ptr @ff_id3v1_genre_str, i64 0, i64 %53
  %55 = load ptr, ptr %54, align 8, !tbaa !4
  %56 = call noalias ptr @av_strdup(ptr noundef %55)
  store ptr %56, ptr %11, align 8, !tbaa !4
  br label %85

57:                                               ; preds = %48, %44, %36
  %58 = load ptr, ptr %10, align 8, !tbaa !4
  %59 = call i32 @strcmp(ptr noundef %58, ptr noundef @.str.96) #11
  %60 = icmp ne i32 %59, 0
  br i1 %60, label %61, label %65

61:                                               ; preds = %57
  %62 = load ptr, ptr %10, align 8, !tbaa !4
  %63 = call i32 @strcmp(ptr noundef %62, ptr noundef @.str.97) #11
  %64 = icmp ne i32 %63, 0
  br i1 %64, label %78, label %65

65:                                               ; preds = %61, %57
  %66 = load ptr, ptr %11, align 8, !tbaa !4
  store ptr %66, ptr %10, align 8, !tbaa !4
  %67 = load ptr, ptr %6, align 8, !tbaa !19
  %68 = load ptr, ptr %7, align 8, !tbaa !12
  %69 = load i32, ptr %12, align 4, !tbaa !10
  %70 = call i32 @decode_str(ptr noundef %67, ptr noundef %68, i32 noundef %69, ptr noundef %11, ptr noundef %8)
  %71 = icmp slt i32 %70, 0
  br i1 %71, label %72, label %75

72:                                               ; preds = %65
  %73 = load ptr, ptr %6, align 8, !tbaa !19
  %74 = load ptr, ptr %10, align 8, !tbaa !4
  call void (ptr, i32, ptr, ...) @av_log(ptr noundef %73, i32 noundef 16, ptr noundef @.str.92, ptr noundef %74)
  call void @av_freep(ptr noundef %10)
  store i32 1, ptr %15, align 4
  br label %95

75:                                               ; preds = %65
  %76 = load i32, ptr %13, align 4, !tbaa !10
  %77 = or i32 %76, 4
  store i32 %77, ptr %13, align 4, !tbaa !10
  br label %84

78:                                               ; preds = %61
  %79 = load ptr, ptr %11, align 8, !tbaa !4
  %80 = load i8, ptr %79, align 1, !tbaa !9
  %81 = icmp ne i8 %80, 0
  br i1 %81, label %83, label %82

82:                                               ; preds = %78
  call void @av_freep(ptr noundef %11)
  br label %83

83:                                               ; preds = %82, %78
  br label %84

84:                                               ; preds = %83, %75
  br label %85

85:                                               ; preds = %84, %51
  %86 = load ptr, ptr %11, align 8, !tbaa !4
  %87 = icmp ne ptr %86, null
  br i1 %87, label %88, label %94

88:                                               ; preds = %85
  %89 = load ptr, ptr %9, align 8, !tbaa !14
  %90 = load ptr, ptr %10, align 8, !tbaa !4
  %91 = load ptr, ptr %11, align 8, !tbaa !4
  %92 = load i32, ptr %13, align 4, !tbaa !10
  %93 = call i32 @av_dict_set(ptr noundef %89, ptr noundef %90, ptr noundef %91, i32 noundef %92)
  br label %94

94:                                               ; preds = %88, %85
  store i32 0, ptr %15, align 4
  br label %95

95:                                               ; preds = %94, %72, %29, %18
  call void @llvm.lifetime.end.p0(i64 4, ptr %14) #10
  call void @llvm.lifetime.end.p0(i64 4, ptr %13) #10
  call void @llvm.lifetime.end.p0(i64 4, ptr %12) #10
  call void @llvm.lifetime.end.p0(i64 8, ptr %11) #10
  %96 = load i32, ptr %15, align 4
  switch i32 %96, label %98 [
    i32 0, label %97
    i32 1, label %97
  ]

97:                                               ; preds = %95, %95
  ret void

98:                                               ; preds = %95
  unreachable
}