; Function Attrs: nounwind uwtable
define internal fastcc void @read_ttag(ptr noundef %0, ptr noundef %1, i32 noundef %2, ptr noundef %3, ptr noundef nonnull %4) unnamed_addr #2 {
  %6 = alloca i32, align 4
  %7 = alloca ptr, align 8
  %8 = alloca ptr, align 8
  %9 = alloca i32, align 4
  store ptr %4, ptr %7, align 8, !tbaa !10
  call void @llvm.lifetime.start.p0(i64 8, ptr nonnull %8) #9
  call void @llvm.lifetime.start.p0(i64 4, ptr nonnull %9) #9
  %10 = icmp slt i32 %2, 1
  br i1 %10, label %58, label %11

11:                                               ; preds = %5
  %12 = tail call i32 @avio_r8(ptr noundef %1) #9
  %13 = add nsw i32 %2, -1
  store i32 %13, ptr %6, align 4, !tbaa !12
  %14 = call fastcc i32 @decode_str(ptr noundef %0, ptr noundef %1, i32 noundef %12, ptr noundef %8, ptr noundef %6)
  %15 = icmp slt i32 %14, 0
  br i1 %15, label %16, label %17

16:                                               ; preds = %11
  call void (ptr, i32, ptr, ...) @av_log(ptr noundef %0, i32 noundef 16, ptr noundef nonnull @.str.92, ptr noundef nonnull %4) #9
  br label %58

17:                                               ; preds = %11
  %18 = call i32 @strcmp(ptr noundef nonnull dereferenceable(1) %4, ptr noundef nonnull dereferenceable(5) @.str.4) #10
  %.not = icmp eq i32 %18, 0
  br i1 %.not, label %21, label %19

19:                                               ; preds = %17
  %20 = call i32 @strcmp(ptr noundef nonnull dereferenceable(1) %4, ptr noundef nonnull dereferenceable(4) @.str.93) #10
  %.not13 = icmp eq i32 %20, 0
  br i1 %.not13, label %21, label %38

21:                                               ; preds = %19, %17
  %22 = load ptr, ptr %8, align 8, !tbaa !10
  %23 = call i32 (ptr, ptr, ...) @__isoc99_sscanf(ptr noundef %22, ptr noundef nonnull @.str.94, ptr noundef nonnull %9) #9
  %24 = icmp eq i32 %23, 1
  br i1 %24, label %31, label %25

25:                                               ; preds = %21
  %26 = load ptr, ptr %8, align 8, !tbaa !10
  %27 = call i32 (ptr, ptr, ...) @__isoc99_sscanf(ptr noundef %26, ptr noundef nonnull @.str.95, ptr noundef nonnull %9) #9
  %28 = icmp eq i32 %27, 1
  %29 = load i32, ptr %9, align 4
  %30 = icmp ult i32 %29, 192
  %or.cond = select i1 %28, i1 %30, i1 false
  br i1 %or.cond, label %32, label %38

31:                                               ; preds = %21
  %.old = load i32, ptr %9, align 4, !tbaa !12
  %.old1 = icmp ult i32 %.old, 192
  br i1 %.old1, label %32, label %38

32:                                               ; preds = %25, %31
  call void @av_freep(ptr noundef nonnull %8) #9
  %33 = load i32, ptr %9, align 4, !tbaa !12
  %34 = zext i32 %33 to i64
  %35 = getelementptr inbounds nuw [192 x ptr], ptr @ff_id3v1_genre_str, i64 0, i64 %34
  %36 = load ptr, ptr %35, align 8, !tbaa !10
  %37 = call noalias ptr @av_strdup(ptr noundef %36) #9
  store ptr %37, ptr %8, align 8, !tbaa !10
  br label %52

38:                                               ; preds = %31, %25, %19
  %39 = call i32 @strcmp(ptr noundef nonnull dereferenceable(1) %4, ptr noundef nonnull dereferenceable(5) @.str.96) #10
  %.not14 = icmp eq i32 %39, 0
  br i1 %.not14, label %42, label %40

40:                                               ; preds = %38
  %41 = call i32 @strcmp(ptr noundef nonnull dereferenceable(1) %4, ptr noundef nonnull dereferenceable(4) @.str.97) #10
  %.not15 = icmp eq i32 %41, 0
  br i1 %.not15, label %42, label %47

42:                                               ; preds = %40, %38
  %43 = load ptr, ptr %8, align 8, !tbaa !10
  store ptr %43, ptr %7, align 8, !tbaa !10
  %44 = call fastcc i32 @decode_str(ptr noundef %0, ptr noundef %1, i32 noundef %12, ptr noundef %8, ptr noundef %6)
  %45 = icmp slt i32 %44, 0
  br i1 %45, label %46, label %thread-pre-split

46:                                               ; preds = %42
  call void (ptr, i32, ptr, ...) @av_log(ptr noundef %0, i32 noundef 16, ptr noundef nonnull @.str.92, ptr noundef %43) #9
  call void @av_freep(ptr noundef nonnull %7) #9
  br label %58

47:                                               ; preds = %40
  %48 = load ptr, ptr %8, align 8, !tbaa !10
  %49 = load i8, ptr %48, align 1, !tbaa !4
  %.not16 = icmp eq i8 %49, 0
  br i1 %.not16, label %50, label %.thread

50:                                               ; preds = %47
  call void @av_freep(ptr noundef nonnull %8) #9
  br label %thread-pre-split

thread-pre-split:                                 ; preds = %50, %42
  %51 = phi ptr [ %43, %42 ], [ %4, %50 ]
  %.0.ph = phi i32 [ 28, %42 ], [ 24, %50 ]
  %.pr = load ptr, ptr %8, align 8, !tbaa !10
  br label %52

52:                                               ; preds = %thread-pre-split, %32
  %53 = phi ptr [ %51, %thread-pre-split ], [ %4, %32 ]
  %54 = phi ptr [ %.pr, %thread-pre-split ], [ %37, %32 ]
  %.0 = phi i32 [ %.0.ph, %thread-pre-split ], [ 24, %32 ]
  %.not17 = icmp eq ptr %54, null
  br i1 %.not17, label %58, label %.thread

.thread:                                          ; preds = %47, %52
  %55 = phi ptr [ %53, %52 ], [ %4, %47 ]
  %.020 = phi i32 [ %.0, %52 ], [ 24, %47 ]
  %56 = phi ptr [ %54, %52 ], [ %48, %47 ]
  %57 = call i32 @av_dict_set(ptr noundef %3, ptr noundef %55, ptr noundef nonnull %56, i32 noundef %.020) #9
  br label %58

58:                                               ; preds = %52, %.thread, %5, %46, %16
  call void @llvm.lifetime.end.p0(i64 4, ptr nonnull %9) #9
  call void @llvm.lifetime.end.p0(i64 8, ptr nonnull %8) #9
  ret void
}